target datalayout = "e-m:e-p270:32:32-p271:32:32-p272:64:64-i64:64-i128:128-f80:128-n8:16:32:64-S128"
target triple = "x86_64-pc-linux-gnu"

%struct.strvec = type { ptr, i64, i64 }
%struct.option = type { i32, i32, ptr, ptr, ptr, ptr, i32, ptr, i64, ptr, i64, ptr }
%struct.string_list = type { ptr, i64, i64, i8, ptr }
%struct.remote = type { %struct.hashmap_entry, ptr, i32, i32, ptr, %struct.strvec, %struct.strvec, %struct.refspec, %struct.refspec, i32, i32, i32, i32, i32, ptr, ptr, ptr, ptr, %struct.string_list, i32, ptr }
%struct.hashmap_entry = type { ptr, i32 }
%struct.refspec = type { ptr, i32, i32, i32 }

@.str.29 = private unnamed_addr constant [17 x i8] c"builtin/remote.c\00", align 1
@.str.43 = private unnamed_addr constant [3 x i8] c"%s\00", align 1
@.str.44 = private unnamed_addr constant [5 x i8] c"push\00", align 1
@.str.129 = private unnamed_addr constant [20 x i8] c"No such remote '%s'\00", align 1
@.str.130 = private unnamed_addr constant [39 x i8] c"query push URLs rather than fetch URLs\00", align 1
@.str.131 = private unnamed_addr constant [4 x i8] c"all\00", align 1
@.str.132 = private unnamed_addr constant [16 x i8] c"return all URLs\00", align 1
@builtin_remote_geturl_usage = internal constant [2 x ptr] [ptr @.str.133, ptr null], align 16

; Function Attrs: inlinehint nounwind uwtable
define internal i32 @const_error() #4 {
  ret i32 -1
}

; Function Attrs: nounwind uwtable
define internal i32 @get_url(i32 noundef %0, ptr noundef %1, ptr noundef %2, ptr noundef %3) #0 {
  %5 = alloca i32, align 4
  %6 = alloca ptr, align 8
  %7 = alloca ptr, align 8
  %8 = alloca ptr, align 8
  %9 = alloca i32, align 4
  %10 = alloca i32, align 4
  %11 = alloca i32, align 4
  %12 = alloca ptr, align 8
  %13 = alloca ptr, align 8
  %14 = alloca ptr, align 8
  %15 = alloca [3 x %struct.option], align 16
  store i32 %0, ptr %5, align 4, !tbaa !4
  store ptr %1, ptr %6, align 8, !tbaa !8
  store ptr %2, ptr %7, align 8, !tbaa !11
  store ptr %3, ptr %8, align 8, !tbaa !13
  call void @llvm.lifetime.start.p0(i64 4, ptr %9) #11
  call void @llvm.lifetime.start.p0(i64 4, ptr %10) #11
  store i32 0, ptr %10, align 4, !tbaa !4
  call void @llvm.lifetime.start.p0(i64 4, ptr %11) #11
  store i32 0, ptr %11, align 4, !tbaa !4
  call void @llvm.lifetime.start.p0(i64 8, ptr %12) #11
  store ptr null, ptr %12, align 8, !tbaa !11
  call void @llvm.lifetime.start.p0(i64 8, ptr %13) #11
  call void @llvm.lifetime.start.p0(i64 8, ptr %14) #11
  call void @llvm.lifetime.start.p0(i64 264, ptr %15) #11
  %16 = getelementptr inbounds nuw %struct.option, ptr %15, i32 0, i32 0
  store i32 9, ptr %16, align 8, !tbaa !16
  %17 = getelementptr inbounds nuw %struct.option, ptr %15, i32 0, i32 1
  store i32 0, ptr %17, align 4, !tbaa !19
  %18 = getelementptr inbounds nuw %struct.option, ptr %15, i32 0, i32 2
  store ptr @.str.44, ptr %18, align 8, !tbaa !20
  %19 = getelementptr inbounds nuw %struct.option, ptr %15, i32 0, i32 3
  store ptr %10, ptr %19, align 8, !tbaa !21
  %20 = getelementptr inbounds nuw %struct.option, ptr %15, i32 0, i32 4
  store ptr null, ptr %20, align 8, !tbaa !22
  %21 = getelementptr inbounds nuw %struct.option, ptr %15, i32 0, i32 5
  store ptr @.str.130, ptr %21, align 8, !tbaa !23
  %22 = getelementptr inbounds nuw %struct.option, ptr %15, i32 0, i32 6
  store i32 2, ptr %22, align 8, !tbaa !24
  %23 = getelementptr i8, ptr %15, i64 44
  call void @llvm.memset.p0.i64(ptr align 4 %23, i8 0, i64 4, i1 false)
  %24 = getelementptr inbounds nuw %struct.option, ptr %15, i32 0, i32 7
  store ptr null, ptr %24, align 8, !tbaa !25
  %25 = getelementptr inbounds nuw %struct.option, ptr %15, i32 0, i32 8
  store i64 1, ptr %25, align 8, !tbaa !26
  %26 = getelementptr inbounds nuw %struct.option, ptr %15, i32 0, i32 9
  store ptr null, ptr %26, align 8, !tbaa !27
  %27 = getelementptr inbounds nuw %struct.option, ptr %15, i32 0, i32 10
  store i64 0, ptr %27, align 8, !tbaa !28
  %28 = getelementptr inbounds nuw %struct.option, ptr %15, i32 0, i32 11
  store ptr null, ptr %28, align 8, !tbaa !29
  %29 = getelementptr inbounds %struct.option, ptr %15, i64 1
  %30 = getelementptr inbounds nuw %struct.option, ptr %29, i32 0, i32 0
  store i32 9, ptr %30, align 8, !tbaa !16
  %31 = getelementptr inbounds nuw %struct.option, ptr %29, i32 0, i32 1
  store i32 0, ptr %31, align 4, !tbaa !19
  %32 = getelementptr inbounds nuw %struct.option, ptr %29, i32 0, i32 2
  store ptr @.str.131, ptr %32, align 8, !tbaa !20
  %33 = getelementptr inbounds nuw %struct.option, ptr %29, i32 0, i32 3
  store ptr %11, ptr %33, align 8, !tbaa !21
  %34 = getelementptr inbounds nuw %struct.option, ptr %29, i32 0, i32 4
  store ptr null, ptr %34, align 8, !tbaa !22
  %35 = getelementptr inbounds nuw %struct.option, ptr %29, i32 0, i32 5
  store ptr @.str.132, ptr %35, align 8, !tbaa !23
  %36 = getelementptr inbounds nuw %struct.option, ptr %29, i32 0, i32 6
  store i32 2, ptr %36, align 8, !tbaa !24
  %37 = getelementptr i8, ptr %29, i64 44
  call void @llvm.memset.p0.i64(ptr align 4 %37, i8 0, i64 4, i1 false)
  %38 = getelementptr inbounds nuw %struct.option, ptr %29, i32 0, i32 7
  store ptr null, ptr %38, align 8, !tbaa !25
  %39 = getelementptr inbounds nuw %struct.option, ptr %29, i32 0, i32 8
  store i64 1, ptr %39, align 8, !tbaa !26
  %40 = getelementptr inbounds nuw %struct.option, ptr %29, i32 0, i32 9
  store ptr null, ptr %40, align 8, !tbaa !27
  %41 = getelementptr inbounds nuw %struct.option, ptr %29, i32 0, i32 10
  store i64 0, ptr %41, align 8, !tbaa !28
  %42 = getelementptr inbounds nuw %struct.option, ptr %29, i32 0, i32 11
  store ptr null, ptr %42, align 8, !tbaa !29
  %43 = getelementptr inbounds %struct.option, ptr %15, i64 2
  call void @llvm.memset.p0.i64(ptr align 8 %43, i8 0, i64 88, i1 false)
  %44 = getelementptr inbounds nuw %struct.option, ptr %43, i32 0, i32 0
  store i32 0, ptr %44, align 8, !tbaa !16
  %45 = load i32, ptr %5, align 4, !tbaa !4
  %46 = load ptr, ptr %6, align 8, !tbaa !8
  %47 = load ptr, ptr %7, align 8, !tbaa !11
  %48 = getelementptr inbounds [3 x %struct.option], ptr %15, i64 0, i64 0
  %49 = call i32 @parse_options(i32 noundef %45, ptr noundef %46, ptr noundef %47, ptr noundef %48, ptr noundef @builtin_remote_geturl_usage, i32 noundef 0)
  store i32 %49, ptr %5, align 4, !tbaa !4
  %50 = load i32, ptr %5, align 4, !tbaa !4
  %51 = icmp ne i32 %50, 1
  br i1 %51, label %52, label %54

52:                                               ; preds = %4
  %53 = getelementptr inbounds [3 x %struct.option], ptr %15, i64 0, i64 0
  call void @usage_with_options(ptr noundef @builtin_remote_geturl_usage, ptr noundef %53) #12
  unreachable

54:                                               ; preds = %4
  %55 = load ptr, ptr %6, align 8, !tbaa !8
  %56 = getelementptr inbounds ptr, ptr %55, i64 0
  %57 = load ptr, ptr %56, align 8, !tbaa !11
  store ptr %57, ptr %12, align 8, !tbaa !11
  %58 = load ptr, ptr %12, align 8, !tbaa !11
  %59 = call ptr @remote_get(ptr noundef %58)
  store ptr %59, ptr %13, align 8, !tbaa !33
  %60 = load ptr, ptr %13, align 8, !tbaa !33
  %61 = call i32 @remote_is_configured(ptr noundef %60, i32 noundef 1)
  %62 = icmp ne i32 %61, 0
  br i1 %62, label %69, label %63

63:                                               ; preds = %54
  %64 = call ptr @_(ptr noundef @.str.129)
  %65 = load ptr, ptr %12, align 8, !tbaa !11
  %66 = call i32 (ptr, ...) @error(ptr noundef %64, ptr noundef %65)
  %67 = call i32 @const_error()
  %68 = call i32 @common_exit(ptr noundef @.str.29, i32 noundef 1722, i32 noundef 2)
  call void @exit(i32 noundef %68) #13
  unreachable

69:                                               ; preds = %54
  %70 = load i32, ptr %10, align 4, !tbaa !4
  %71 = icmp ne i32 %70, 0
  br i1 %71, label %72, label %75

72:                                               ; preds = %69
  %73 = load ptr, ptr %13, align 8, !tbaa !33
  %74 = call ptr @push_url_of_remote(ptr noundef %73)
  br label %78

75:                                               ; preds = %69
  %76 = load ptr, ptr %13, align 8, !tbaa !33
  %77 = getelementptr inbounds nuw %struct.remote, ptr %76, i32 0, i32 5
  br label %78

78:                                               ; preds = %75, %72
  %79 = phi ptr [ %74, %72 ], [ %77, %75 ]
  store ptr %79, ptr %14, align 8, !tbaa !100
  %80 = load i32, ptr %11, align 4, !tbaa !4
  %81 = icmp ne i32 %80, 0
  br i1 %81, label %82, label %103

82:                                               ; preds = %78
  store i32 0, ptr %9, align 4, !tbaa !4
  br label %83

83:                                               ; preds = %99, %82
  %84 = load i32, ptr %9, align 4, !tbaa !4
  %85 = sext i32 %84 to i64
  %86 = load ptr, ptr %14, align 8, !tbaa !100
  %87 = getelementptr inbounds nuw %struct.strvec, ptr %86, i32 0, i32 1
  %88 = load i64, ptr %87, align 8, !tbaa !102
  %89 = icmp ult i64 %85, %88
  br i1 %89, label %90, label %102

90:                                               ; preds = %83
  %91 = load ptr, ptr %14, align 8, !tbaa !100
  %92 = getelementptr inbounds nuw %struct.strvec, ptr %91, i32 0, i32 0
  %93 = load ptr, ptr %92, align 8, !tbaa !103
  %94 = load i32, ptr %9, align 4, !tbaa !4
  %95 = sext i32 %94 to i64
  %96 = getelementptr inbounds ptr, ptr %93, i64 %95
  %97 = load ptr, ptr %96, align 8, !tbaa !11
  %98 = call i32 (ptr, ...) @printf_ln(ptr noundef @.str.43, ptr noundef %97)
  br label %99

99:                                               ; preds = %90
  %100 = load i32, ptr %9, align 4, !tbaa !4
  %101 = add nsw i32 %100, 1
  store i32 %101, ptr %9, align 4, !tbaa !4
  br label %83, !llvm.loop !104

102:                                              ; preds = %83
  br label %110

103:                                              ; preds = %78
  %104 = load ptr, ptr %14, align 8, !tbaa !100
  %105 = getelementptr inbounds nuw %struct.strvec, ptr %104, i32 0, i32 0
  %106 = load ptr, ptr %105, align 8, !tbaa !103
  %107 = getelementptr inbounds ptr, ptr %106, i64 0
  %108 = load ptr, ptr %107, align 8, !tbaa !11
  %109 = call i32 (ptr, ...) @printf_ln(ptr noundef @.str.43, ptr noundef %108)
  br label %110

110:                                              ; preds = %103, %102
  call void @llvm.lifetime.end.p0(i64 264, ptr %15) #11
  call void @llvm.lifetime.end.p0(i64 8, ptr %14) #11
  call void @llvm.lifetime.end.p0(i64 8, ptr %13) #11
  call void @llvm.lifetime.end.p0(i64 8, ptr %12) #11
  call void @llvm.lifetime.end.p0(i64 4, ptr %11) #11
  call void @llvm.lifetime.end.p0(i64 4, ptr %10) #11
  call void @llvm.lifetime.end.p0(i64 4, ptr %9) #11
  ret i32 0
}