; Function Attrs: nounwind uwtable
define internal noundef i32 @get_url(i32 noundef %0, ptr noundef %1, ptr noundef %2, ptr readnone captures(none) %3) #0 {
  %5 = alloca i32, align 4
  %6 = alloca i32, align 4
  %7 = alloca [3 x %struct.option], align 16
  call void @llvm.lifetime.start.p0(i64 4, ptr nonnull %5) #19
  store i32 0, ptr %5, align 4, !tbaa !21
  call void @llvm.lifetime.start.p0(i64 4, ptr nonnull %6) #19
  store i32 0, ptr %6, align 4, !tbaa !21
  call void @llvm.lifetime.start.p0(i64 264, ptr nonnull %7) #19
  store i32 9, ptr %7, align 16, !tbaa !8
  %8 = getelementptr inbounds nuw i8, ptr %7, i64 4
  store i32 0, ptr %8, align 4, !tbaa !13
  %9 = getelementptr inbounds nuw i8, ptr %7, i64 8
  store ptr @.str.44, ptr %9, align 8, !tbaa !14
  %10 = getelementptr inbounds nuw i8, ptr %7, i64 16
  store ptr %5, ptr %10, align 16, !tbaa !15
  %11 = getelementptr inbounds nuw i8, ptr %7, i64 24
  store ptr null, ptr %11, align 8, !tbaa !16
  %12 = getelementptr inbounds nuw i8, ptr %7, i64 32
  store ptr @.str.130, ptr %12, align 16, !tbaa !17
  %13 = getelementptr inbounds nuw i8, ptr %7, i64 40
  store i32 2, ptr %13, align 8, !tbaa !18
  %14 = getelementptr inbounds nuw i8, ptr %7, i64 44
  store i32 0, ptr %14, align 4
  %15 = getelementptr inbounds nuw i8, ptr %7, i64 48
  store ptr null, ptr %15, align 16, !tbaa !22
  %16 = getelementptr inbounds nuw i8, ptr %7, i64 56
  store i64 1, ptr %16, align 8, !tbaa !23
  %17 = getelementptr inbounds nuw i8, ptr %7, i64 64
  %18 = getelementptr inbounds nuw i8, ptr %7, i64 88
  call void @llvm.memset.p0.i64(ptr noundef nonnull align 16 dereferenceable(24) %17, i8 0, i64 24, i1 false)
  store i32 9, ptr %18, align 8, !tbaa !8
  %19 = getelementptr inbounds nuw i8, ptr %7, i64 92
  store i32 0, ptr %19, align 4, !tbaa !13
  %20 = getelementptr inbounds nuw i8, ptr %7, i64 96
  store ptr @.str.131, ptr %20, align 16, !tbaa !14
  %21 = getelementptr inbounds nuw i8, ptr %7, i64 104
  store ptr %6, ptr %21, align 8, !tbaa !15
  %22 = getelementptr inbounds nuw i8, ptr %7, i64 112
  store ptr null, ptr %22, align 16, !tbaa !16
  %23 = getelementptr inbounds nuw i8, ptr %7, i64 120
  store ptr @.str.132, ptr %23, align 8, !tbaa !17
  %24 = getelementptr inbounds nuw i8, ptr %7, i64 128
  store i32 2, ptr %24, align 16, !tbaa !18
  %25 = getelementptr inbounds nuw i8, ptr %7, i64 132
  store i32 0, ptr %25, align 4
  %26 = getelementptr inbounds nuw i8, ptr %7, i64 136
  store ptr null, ptr %26, align 8, !tbaa !22
  %27 = getelementptr inbounds nuw i8, ptr %7, i64 144
  store i64 1, ptr %27, align 16, !tbaa !23
  %28 = getelementptr inbounds nuw i8, ptr %7, i64 152
  call void @llvm.memset.p0.i64(ptr noundef nonnull align 8 dereferenceable(112) %28, i8 0, i64 112, i1 false)
  %29 = call i32 @parse_options(i32 noundef %0, ptr noundef %1, ptr noundef %2, ptr noundef nonnull %7, ptr noundef nonnull @builtin_remote_geturl_usage, i32 noundef 0) #19
  %.not = icmp eq i32 %29, 1
  br i1 %.not, label %31, label %30

30:                                               ; preds = %4
  call void @usage_with_options(ptr noundef nonnull @builtin_remote_geturl_usage, ptr noundef nonnull %7) #20
  unreachable

31:                                               ; preds = %4
  %32 = load ptr, ptr %1, align 8, !tbaa !20
  %33 = call ptr @remote_get(ptr noundef %32) #19
  %34 = call i32 @remote_is_configured(ptr noundef %33, i32 noundef 1) #19
  %.not16 = icmp eq i32 %34, 0
  br i1 %.not16, label %35, label %39

35:                                               ; preds = %31
  %36 = call fastcc ptr @_(ptr noundef nonnull @.str.129)
  %37 = call i32 (ptr, ...) @error(ptr noundef %36, ptr noundef %32) #19
  %38 = call i32 @common_exit(ptr noundef nonnull @.str.29, i32 noundef 1722, i32 noundef 2) #19
  call void @exit(i32 noundef %38) #20
  unreachable

39:                                               ; preds = %31
  %40 = load i32, ptr %5, align 4, !tbaa !21
  %.not17 = icmp eq i32 %40, 0
  br i1 %.not17, label %43, label %41

41:                                               ; preds = %39
  %42 = call ptr @push_url_of_remote(ptr noundef %33) #19
  br label %45

43:                                               ; preds = %39
  %44 = getelementptr inbounds nuw i8, ptr %33, i64 40
  br label %45

45:                                               ; preds = %43, %41
  %46 = phi ptr [ %42, %41 ], [ %44, %43 ]
  %47 = load i32, ptr %6, align 4, !tbaa !21
  %.not18 = icmp eq i32 %47, 0
  br i1 %.not18, label %56, label %.preheader

.preheader:                                       ; preds = %45
  %48 = getelementptr inbounds nuw i8, ptr %46, i64 8
  %49 = load i64, ptr %48, align 8, !tbaa !102
  %.not20 = icmp eq i64 %49, 0
  br i1 %.not20, label %.loopexit, label %.lr.ph

.lr.ph:                                           ; preds = %.preheader, %.lr.ph
  %indvars.iv = phi i64 [ %indvars.iv.next, %.lr.ph ], [ 0, %.preheader ]
  %50 = load ptr, ptr %46, align 8, !tbaa !103
  %51 = getelementptr inbounds nuw ptr, ptr %50, i64 %indvars.iv
  %52 = load ptr, ptr %51, align 8, !tbaa !20
  %53 = call i32 (ptr, ...) @printf_ln(ptr noundef nonnull @.str.43, ptr noundef %52) #19
  %indvars.iv.next = add nuw nsw i64 %indvars.iv, 1
  %54 = load i64, ptr %48, align 8, !tbaa !102
  %55 = icmp ugt i64 %54, %indvars.iv.next
  br i1 %55, label %.lr.ph, label %.loopexit, !llvm.loop !104

56:                                               ; preds = %45
  %57 = load ptr, ptr %46, align 8, !tbaa !103
  %58 = load ptr, ptr %57, align 8, !tbaa !20
  %59 = call i32 (ptr, ...) @printf_ln(ptr noundef nonnull @.str.43, ptr noundef %58) #19
  br label %.loopexit

.loopexit:                                        ; preds = %.lr.ph, %.preheader, %56
  call void @llvm.lifetime.end.p0(i64 264, ptr nonnull %7) #19
  call void @llvm.lifetime.end.p0(i64 4, ptr nonnull %6) #19
  call void @llvm.lifetime.end.p0(i64 4, ptr nonnull %5) #19
  ret i32 0
}